; Function Attrs: mustprogress uwtable
define hidden void @_ZN4ncnn6EinsumC2Ev(ptr noundef nonnull align 8 dereferenceable(264) %0) unnamed_addr #1 align 2 personality ptr @__gxx_personality_v0 {
  tail call void @_ZN4ncnn5LayerC2Ev(ptr noundef nonnull align 8 dereferenceable(208) %0)
  store ptr getelementptr inbounds nuw inrange(-16, 80) (i8, ptr @_ZTVN4ncnn6EinsumE, i64 16), ptr %0, align 8, !tbaa !4
  %2 = getelementptr inbounds nuw i8, ptr %0, i64 208
  tail call void @llvm.memset.p0.i64(ptr noundef nonnull align 8 dereferenceable(24) %2, i8 0, i64 24, i1 false)
  %3 = getelementptr inbounds nuw i8, ptr %0, i64 232
  %4 = getelementptr inbounds nuw i8, ptr %0, i64 248
  store ptr %4, ptr %3, align 8, !tbaa !32
  %5 = getelementptr inbounds nuw i8, ptr %0, i64 240
  store i64 0, ptr %5, align 8, !tbaa !14
  store i8 0, ptr %4, align 8, !tbaa !15
  %6 = getelementptr inbounds nuw i8, ptr %0, i64 8
  store i8 0, ptr %6, align 8, !tbaa !82
  %7 = getelementptr inbounds nuw i8, ptr %0, i64 9
  store i8 0, ptr %7, align 1, !tbaa !90
  ret void
}